(lp0
F0.0
aF1.0
aF0.7777777777777778
aF0.9166666666666666
aF0.36111111111111116
aF1.0
aF0.6388888888888888
aF0.8611111111111112
aF0.36111111111111116
aF0.9444444444444444
aF0.8333333333333334
aF0.8888888888888888
aF0.4722222222222222
aF0.9722222222222222
aF0.6111111111111112
aF0.9166666666666666
aF0.36111111111111116
aF0.9166666666666666
aF0.7222222222222222
aF0.8888888888888888
aF0.4444444444444444
aF0.9444444444444444
aF0.6944444444444444
aF0.8888888888888888
aF0.38888888888888884
aF0.9166666666666666
aF0.75
aF0.8611111111111112
aF0.4444444444444444
aF0.9444444444444444
aF0.6666666666666667
aF0.9166666666666666
aF0.38888888888888884
aF0.9722222222222222
aF0.6666666666666667
aF0.9722222222222222
aF0.38888888888888884
aF0.9722222222222222
aF0.6388888888888888
aF0.8333333333333334
aF0.41666666666666663
aF0.9166666666666666
aF0.5833333333333333
aF0.9166666666666666
aF0.5555555555555556
aF0.9166666666666666
aF0.6666666666666667
aF0.9166666666666666
aF0.4444444444444444
aF0.9166666666666666
aF0.6944444444444444
aF0.9444444444444444
aF0.6111111111111112
aF0.75
aF0.7222222222222222
aF0.8055555555555556
aF0.2777777777777778
aF0.9722222222222222
aF0.8055555555555556
aF0.9722222222222222
aF0.5555555555555556
aF0.9444444444444444
aF0.7222222222222222
aF0.8611111111111112
aF0.38888888888888884
aF0.9722222222222222
aF0.6666666666666667
aF0.8611111111111112
aF0.5
aF0.9444444444444444
aF0.6666666666666667
aF0.8333333333333334
aF0.41666666666666663
aF0.8333333333333334
aF0.7222222222222222
aF0.9166666666666666
aF0.5555555555555556
aF0.9444444444444444
aF0.6388888888888888
aF0.8333333333333334
aF0.4722222222222222
aF0.8888888888888888
aF0.75
aF0.8055555555555556
aF0.5555555555555556
aF0.8888888888888888
aF0.7222222222222222
aF0.8888888888888888
aF0.38888888888888884
aF0.8888888888888888
aF0.6944444444444444
aF0.8611111111111112
aF0.38888888888888884
aF0.9722222222222222
aF0.75
aF0.8888888888888888
aF0.41666666666666663
aF0.9444444444444444
aF0.8055555555555556
aF0.7777777777777778
aF0.41666666666666663
aF0.9722222222222222
aF0.7222222222222222
aF0.7777777777777778
aF0.3055555555555556
aF0.9166666666666666
aF0.6666666666666667
aF0.9166666666666666
aF0.5833333333333333
aF0.8888888888888888
aF0.7777777777777778
aF0.8333333333333334
aF0.36111111111111116
aF0.9166666666666666
aF0.75
aF0.8611111111111112
aF0.5555555555555556
aF0.7777777777777778
aF0.75
aF0.8888888888888888
aF0.36111111111111116
aF0.9444444444444444
aF0.8611111111111112
aF0.9166666666666666
aF0.5555555555555556
aF0.9444444444444444
aF0.8055555555555556
aF0.9166666666666666
aF0.38888888888888884
aF0.9444444444444444
aF0.8055555555555556
aF0.9166666666666666
aF0.38888888888888884
aF0.9444444444444444
aF0.6111111111111112
aF0.9166666666666666
aF0.38888888888888884
aF0.8611111111111112
aF0.8888888888888888
aF0.8888888888888888
aF0.38888888888888884
aF0.9444444444444444
aF0.75
aF0.9166666666666666
aF0.36111111111111116
aF0.8611111111111112
aF0.8055555555555556
aF0.9166666666666666
aF0.38888888888888884
aF0.9722222222222222
aF0.7222222222222222
aF0.8611111111111112
aF0.41666666666666663
aF0.9166666666666666
aF0.8055555555555556
aF0.8888888888888888
aF0.4444444444444444
aF1.0
aF0.6666666666666667
aF1.0
aF0.36111111111111116
aF1.0
aF0.6944444444444444
aF1.0
aF0.36111111111111116
aF0.9166666666666666
aF0.6666666666666667
aF0.9166666666666666
aF0.25
aF0.9444444444444444
aF0.75
aF0.9444444444444444
aF0.4444444444444444
aF0.9444444444444444
aF0.6388888888888888
aF0.9166666666666666
aF0.33333333333333337
aF1.0
aF0.6666666666666667
aF0.9722222222222222
aF0.6111111111111112
aF0.8611111111111112
aF0.6944444444444444
aF0.8333333333333334
aF0.38888888888888884
aF0.9166666666666666
aF0.7777777777777778
aF1.0
aF0.5277777777777778
aF0.8333333333333334
aF0.7222222222222222
aF0.9722222222222222
aF0.4444444444444444
aF0.8611111111111112
aF0.7777777777777778
aF0.9166666666666666
aF0.4444444444444444
aF0.9722222222222222
aF0.6666666666666667
aF0.8611111111111112
aF0.5277777777777778
aF0.8333333333333334
aF0.7222222222222222
aF0.9722222222222222
aF0.5
aF0.9166666666666666
aF0.5833333333333333
aF0.9444444444444444
aF0.4444444444444444
aF0.8611111111111112
aF0.7777777777777778
aF0.9722222222222222
aF0.5
aF0.9722222222222222
aF0.6666666666666667
aF0.9722222222222222
aF0.36111111111111116
aF0.9166666666666666
aF0.7222222222222222
aF1.0
aF0.4444444444444444
aF0.8055555555555556
aF0.7222222222222222
aF0.9444444444444444
aF0.38888888888888884
aF0.8888888888888888
aF0.75
aF1.0
aF0.3055555555555556
aF0.8888888888888888
aF0.7777777777777778
aF0.9444444444444444
aF0.4444444444444444
aF0.8888888888888888
aF0.7222222222222222
aF0.9722222222222222
aF0.41666666666666663
aF1.0
aF0.6666666666666667
aF0.9166666666666666
aF0.4444444444444444
aF1.0
aF0.7777777777777778
aF1.0
aF0.41666666666666663
aF0.9722222222222222
aF0.8055555555555556
aF0.9444444444444444
aF0.5555555555555556
aF0.9722222222222222
aF0.8611111111111112
aF1.0
aF0.7222222222222222
aF1.0
aF0.8333333333333334
aF1.0
a.